; Function Attrs: mustprogress uwtable
define internal void @_ZZ22test_submodule_buffersRN8pybind117module_EEN20BufferReadOnlySelect15get_buffer_infoEv(ptr dead_on_unwind noalias writable sret(%"struct.pybind11::buffer_info") align 8 %0, ptr noundef nonnull align 1 dereferenceable(2) %1) #5 align 2 personality ptr @__gxx_personality_v0 {
  %3 = alloca %"class.std::__cxx11::basic_string", align 8
  %4 = getelementptr inbounds nuw i8, ptr %1, i64 1
  %5 = load i8, ptr %4, align 1, !tbaa !531, !range !68, !noundef !73
  %6 = trunc nuw i8 %5 to i1
  call void @llvm.lifetime.start.p0(i64 32, ptr nonnull %3) #35
  %7 = getelementptr inbounds nuw i8, ptr %3, i64 16
  store ptr %7, ptr %3, align 8, !tbaa !74, !alias.scope !533
  call void @_ZNSt7__cxx1112basic_stringIcSt11char_traitsIcESaIcEE12_M_constructEmc(ptr noundef nonnull align 8 dereferenceable(32) %3, i64 noundef 1, i8 noundef signext 66)
  invoke void @_ZN8pybind1111buffer_infoC2EPvlRKNSt7__cxx1112basic_stringIcSt11char_traitsIcESaIcEEElb(ptr noundef nonnull align 8 dereferenceable(129) %0, ptr noundef nonnull %1, i64 noundef 1, ptr noundef nonnull align 8 dereferenceable(32) %3, i64 noundef 1, i1 noundef zeroext %6)
          to label %8 unwind label %16

8:                                                ; preds = %2
  %9 = load ptr, ptr %3, align 8, !tbaa !11
  %10 = icmp eq ptr %9, %7
  br i1 %10, label %_ZNKSt7__cxx1112basic_stringIcSt11char_traitsIcESaIcEE11_M_is_localEv.exit.thread.i.i.i, label %_ZNKSt7__cxx1112basic_stringIcSt11char_traitsIcESaIcEE11_M_is_localEv.exit.i.i.i

_ZNKSt7__cxx1112basic_stringIcSt11char_traitsIcESaIcEE11_M_is_localEv.exit.thread.i.i.i: ; preds = %8
  %11 = getelementptr inbounds nuw i8, ptr %3, i64 8
  %12 = load i64, ptr %11, align 8, !tbaa !78
  %13 = icmp ult i64 %12, 16
  call void @llvm.assume(i1 %13)
  br label %_ZN8pybind1111buffer_infoC2IhEEPT_lb.exit

_ZNKSt7__cxx1112basic_stringIcSt11char_traitsIcESaIcEE11_M_is_localEv.exit.i.i.i: ; preds = %8
  %14 = load i64, ptr %7, align 8, !tbaa !79
  %15 = add i64 %14, 1
  call void @_ZdlPvm(ptr noundef %9, i64 noundef %15) #38
  br label %_ZN8pybind1111buffer_infoC2IhEEPT_lb.exit

16:                                               ; preds = %2
  %17 = landingpad { ptr, i32 }
          cleanup
  %18 = load ptr, ptr %3, align 8, !tbaa !11
  %19 = icmp eq ptr %18, %7
  br i1 %19, label %_ZNKSt7__cxx1112basic_stringIcSt11char_traitsIcESaIcEE11_M_is_localEv.exit.thread.i.i6.i, label %_ZNKSt7__cxx1112basic_stringIcSt11char_traitsIcESaIcEE11_M_is_localEv.exit.i.i5.i

_ZNKSt7__cxx1112basic_stringIcSt11char_traitsIcESaIcEE11_M_is_localEv.exit.thread.i.i6.i: ; preds = %16
  %20 = getelementptr inbounds nuw i8, ptr %3, i64 8
  %21 = load i64, ptr %20, align 8, !tbaa !78
  %22 = icmp ult i64 %21, 16
  call void @llvm.assume(i1 %22)
  br label %_ZNSt7__cxx1112basic_stringIcSt11char_traitsIcESaIcEED2Ev.exit7.i

_ZNKSt7__cxx1112basic_stringIcSt11char_traitsIcESaIcEE11_M_is_localEv.exit.i.i5.i: ; preds = %16
  %23 = load i64, ptr %7, align 8, !tbaa !79
  %24 = add i64 %23, 1
  call void @_ZdlPvm(ptr noundef %18, i64 noundef %24) #38
  br label %_ZNSt7__cxx1112basic_stringIcSt11char_traitsIcESaIcEED2Ev.exit7.i

_ZNSt7__cxx1112basic_stringIcSt11char_traitsIcESaIcEED2Ev.exit7.i: ; preds = %_ZNKSt7__cxx1112basic_stringIcSt11char_traitsIcESaIcEE11_M_is_localEv.exit.i.i5.i, %_ZNKSt7__cxx1112basic_stringIcSt11char_traitsIcESaIcEE11_M_is_localEv.exit.thread.i.i6.i
  call void @llvm.lifetime.end.p0(i64 32, ptr nonnull %3) #35
  resume { ptr, i32 } %17

_ZN8pybind1111buffer_infoC2IhEEPT_lb.exit:        ; preds = %_ZNKSt7__cxx1112basic_stringIcSt11char_traitsIcESaIcEE11_M_is_localEv.exit.thread.i.i.i, %_ZNKSt7__cxx1112basic_stringIcSt11char_traitsIcESaIcEE11_M_is_localEv.exit.i.i.i
  call void @llvm.lifetime.end.p0(i64 32, ptr nonnull %3) #35
  ret void
}